target datalayout = "e-m:e-p270:32:32-p271:32:32-p272:64:64-i64:64-i128:128-f80:128-n8:16:32:64-S128"
target triple = "x86_64-pc-linux-gnu"

%struct.Abc_Ntk_t_ = type { i32, i32, ptr, ptr, ptr, ptr, ptr, ptr, ptr, ptr, ptr, ptr, ptr, [11 x i32], i32, i32, i32, i32, ptr, i32, ptr, ptr, i32, i32, i32, double, i32, %struct.Vec_Int_t_, ptr, ptr, ptr, ptr, ptr, float, i32, ptr, ptr, ptr, ptr, ptr, ptr, ptr, ptr, ptr, ptr, ptr, ptr, ptr, ptr, ptr, ptr, ptr, ptr, ptr, ptr, ptr }
%struct.Vec_Int_t_ = type { i32, i32, ptr }
%struct.Vec_Ptr_t_ = type { i32, i32, ptr }
%struct.sim_result = type { ptr, ptr, i32, i32, double }
%struct.Abc_Obj_t_ = type { ptr, ptr, i32, i32, %struct.Vec_Int_t_, %struct.Vec_Int_t_, %union.anon, %union.anon.0 }
%union.anon = type { ptr }
%union.anon.0 = type { ptr }

@.str.18 = private unnamed_addr constant [7 x i8] c" %s=%d\00", align 1
@.str.19 = private unnamed_addr constant [2 x i8] c"\0A\00", align 1

; Function Attrs: nounwind uwtable
define internal ptr @Vec_PtrEntry(ptr noundef %0, i32 noundef %1) #0 {
  %3 = alloca ptr, align 8
  %4 = alloca i32, align 4
  store ptr %0, ptr %3, align 8
  store i32 %1, ptr %4, align 4
  %5 = load ptr, ptr %3, align 8
  %6 = getelementptr inbounds %struct.Vec_Ptr_t_, ptr %5, i32 0, i32 2
  %7 = load ptr, ptr %6, align 8
  %8 = load i32, ptr %4, align 4
  %9 = sext i32 %8 to i64
  %10 = getelementptr inbounds ptr, ptr %7, i64 %9
  %11 = load ptr, ptr %10, align 8
  ret ptr %11
}

; Function Attrs: nounwind uwtable
define internal i32 @Vec_PtrSize(ptr noundef %0) #0 {
  %2 = alloca ptr, align 8
  store ptr %0, ptr %2, align 8
  %3 = load ptr, ptr %2, align 8
  %4 = getelementptr inbounds %struct.Vec_Ptr_t_, ptr %3, i32 0, i32 1
  %5 = load i32, ptr %4, align 4
  ret i32 %5
}

; Function Attrs: nounwind uwtable
define internal ptr @Abc_NtkCo(ptr noundef %0, i32 noundef %1) #0 {
  %3 = alloca ptr, align 8
  %4 = alloca i32, align 4
  store ptr %0, ptr %3, align 8
  store i32 %1, ptr %4, align 4
  %5 = load ptr, ptr %3, align 8
  %6 = getelementptr inbounds %struct.Abc_Ntk_t_, ptr %5, i32 0, i32 9
  %7 = load ptr, ptr %6, align 8
  %8 = load i32, ptr %4, align 4
  %9 = call ptr @Vec_PtrEntry(ptr noundef %7, i32 noundef %8)
  ret ptr %9
}

; Function Attrs: nounwind uwtable
define internal i32 @Abc_NtkCoNum(ptr noundef %0) #0 {
  %2 = alloca ptr, align 8
  store ptr %0, ptr %2, align 8
  %3 = load ptr, ptr %2, align 8
  %4 = getelementptr inbounds %struct.Abc_Ntk_t_, ptr %3, i32 0, i32 9
  %5 = load ptr, ptr %4, align 8
  %6 = call i32 @Vec_PtrSize(ptr noundef %5)
  ret i32 %6
}

; Function Attrs: nounwind uwtable
define internal i32 @Abc_ObjId(ptr noundef %0) #0 {
  %2 = alloca ptr, align 8
  store ptr %0, ptr %2, align 8
  %3 = load ptr, ptr %2, align 8
  %4 = getelementptr inbounds %struct.Abc_Obj_t_, ptr %3, i32 0, i32 2
  %5 = load i32, ptr %4, align 8
  ret i32 %5
}

; Function Attrs: nounwind uwtable
define internal ptr @Abc_NtkCi(ptr noundef %0, i32 noundef %1) #0 {
  %3 = alloca ptr, align 8
  %4 = alloca i32, align 4
  store ptr %0, ptr %3, align 8
  store i32 %1, ptr %4, align 4
  %5 = load ptr, ptr %3, align 8
  %6 = getelementptr inbounds %struct.Abc_Ntk_t_, ptr %5, i32 0, i32 8
  %7 = load ptr, ptr %6, align 8
  %8 = load i32, ptr %4, align 4
  %9 = call ptr @Vec_PtrEntry(ptr noundef %7, i32 noundef %8)
  ret ptr %9
}

; Function Attrs: nounwind uwtable
define internal i32 @Abc_NtkCiNum(ptr noundef %0) #0 {
  %2 = alloca ptr, align 8
  store ptr %0, ptr %2, align 8
  %3 = load ptr, ptr %2, align 8
  %4 = getelementptr inbounds %struct.Abc_Ntk_t_, ptr %3, i32 0, i32 8
  %5 = load ptr, ptr %4, align 8
  %6 = call i32 @Vec_PtrSize(ptr noundef %5)
  ret i32 %6
}

; Function Attrs: nounwind uwtable
define internal ptr @ints(i32 noundef %0) #0 {
  %2 = alloca i32, align 4
  store i32 %0, ptr %2, align 4
  %3 = load i32, ptr %2, align 4
  %4 = sext i32 %3 to i64
  %5 = mul i64 4, %4
  %6 = call noalias ptr @malloc(i64 noundef %5) #11
  ret ptr %6
}

; Function Attrs: nounwind uwtable
define internal i32 @Abc_NtkPiNum(ptr noundef %0) #0 {
  %2 = alloca ptr, align 8
  store ptr %0, ptr %2, align 8
  %3 = load ptr, ptr %2, align 8
  %4 = getelementptr inbounds %struct.Abc_Ntk_t_, ptr %3, i32 0, i32 6
  %5 = load ptr, ptr %4, align 8
  %6 = call i32 @Vec_PtrSize(ptr noundef %5)
  ret i32 %6
}

; Function Attrs: nounwind uwtable
define internal i32 @Abc_NtkPoNum(ptr noundef %0) #0 {
  %2 = alloca ptr, align 8
  store ptr %0, ptr %2, align 8
  %3 = load ptr, ptr %2, align 8
  %4 = getelementptr inbounds %struct.Abc_Ntk_t_, ptr %3, i32 0, i32 7
  %5 = load ptr, ptr %4, align 8
  %6 = call i32 @Vec_PtrSize(ptr noundef %5)
  ret i32 %6
}

; Function Attrs: nounwind uwtable
define internal ptr @analyzeConflict(ptr noundef %0, ptr noundef %1, i32 noundef %2) #0 {
  %4 = alloca ptr, align 8
  %5 = alloca ptr, align 8
  %6 = alloca i32, align 4
  %7 = alloca ptr, align 8
  %8 = alloca i32, align 4
  %9 = alloca i32, align 4
  %10 = alloca ptr, align 8
  %11 = alloca ptr, align 8
  %12 = alloca i32, align 4
  %13 = alloca i32, align 4
  store ptr %0, ptr %4, align 8
  store ptr %1, ptr %5, align 8
  store i32 %2, ptr %6, align 4
  store i32 0, ptr %9, align 4
  %14 = load ptr, ptr %4, align 8
  %15 = call i32 @Abc_NtkPoNum(ptr noundef %14)
  store i32 %15, ptr %12, align 4
  %16 = load ptr, ptr %4, align 8
  %17 = call i32 @Abc_NtkPiNum(ptr noundef %16)
  store i32 %17, ptr %13, align 4
  %18 = call noalias ptr @malloc(i64 noundef 32) #11
  store ptr %18, ptr %11, align 8
  %19 = load i32, ptr %13, align 4
  %20 = call ptr @ints(i32 noundef %19)
  %21 = load ptr, ptr %11, align 8
  %22 = getelementptr inbounds %struct.sim_result, ptr %21, i32 0, i32 0
  store ptr %20, ptr %22, align 8
  %23 = load i32, ptr %12, align 4
  %24 = call ptr @ints(i32 noundef %23)
  %25 = load ptr, ptr %11, align 8
  %26 = getelementptr inbounds %struct.sim_result, ptr %25, i32 0, i32 1
  store ptr %24, ptr %26, align 8
  %27 = load ptr, ptr %4, align 8
  %28 = load ptr, ptr %5, align 8
  %29 = call ptr @Abc_NtkVerifySimulatePattern(ptr noundef %27, ptr noundef %28)
  store ptr %29, ptr %10, align 8
  store i32 0, ptr %8, align 4
  br label %30

30:                                               ; preds = %55, %3
  %31 = load i32, ptr %8, align 4
  %32 = load ptr, ptr %4, align 8
  %33 = call i32 @Abc_NtkCiNum(ptr noundef %32)
  %34 = icmp slt i32 %31, %33
  br i1 %34, label %35, label %39

35:                                               ; preds = %30
  %36 = load ptr, ptr %4, align 8
  %37 = load i32, ptr %8, align 4
  %38 = call ptr @Abc_NtkCi(ptr noundef %36, i32 noundef %37)
  store ptr %38, ptr %7, align 8
  br label %39

39:                                               ; preds = %35, %30
  %40 = phi i1 [ false, %30 ], [ true, %35 ]
  br i1 %40, label %41, label %58

41:                                               ; preds = %39
  %42 = load ptr, ptr %5, align 8
  %43 = load i32, ptr %8, align 4
  %44 = sext i32 %43 to i64
  %45 = getelementptr inbounds i32, ptr %42, i64 %44
  %46 = load i32, ptr %45, align 4
  %47 = load ptr, ptr %11, align 8
  %48 = getelementptr inbounds %struct.sim_result, ptr %47, i32 0, i32 0
  %49 = load ptr, ptr %48, align 8
  %50 = load ptr, ptr %7, align 8
  %51 = call i32 @Abc_ObjId(ptr noundef %50)
  %52 = sub i32 %51, 1
  %53 = zext i32 %52 to i64
  %54 = getelementptr inbounds i32, ptr %49, i64 %53
  store i32 %46, ptr %54, align 4
  br label %55

55:                                               ; preds = %41
  %56 = load i32, ptr %8, align 4
  %57 = add nsw i32 %56, 1
  store i32 %57, ptr %8, align 4
  br label %30, !llvm.loop !101

58:                                               ; preds = %39
  store i32 0, ptr %8, align 4
  br label %59

59:                                               ; preds = %96, %58
  %60 = load i32, ptr %8, align 4
  %61 = load ptr, ptr %4, align 8
  %62 = call i32 @Abc_NtkCoNum(ptr noundef %61)
  %63 = icmp slt i32 %60, %62
  br i1 %63, label %64, label %68

64:                                               ; preds = %59
  %65 = load ptr, ptr %4, align 8
  %66 = load i32, ptr %8, align 4
  %67 = call ptr @Abc_NtkCo(ptr noundef %65, i32 noundef %66)
  store ptr %67, ptr %7, align 8
  br label %68

68:                                               ; preds = %64, %59
  %69 = phi i1 [ false, %59 ], [ true, %64 ]
  br i1 %69, label %70, label %99

70:                                               ; preds = %68
  %71 = load ptr, ptr %10, align 8
  %72 = load i32, ptr %8, align 4
  %73 = sext i32 %72 to i64
  %74 = getelementptr inbounds i32, ptr %71, i64 %73
  %75 = load i32, ptr %74, align 4
  %76 = load ptr, ptr %11, align 8
  %77 = getelementptr inbounds %struct.sim_result, ptr %76, i32 0, i32 1
  %78 = load ptr, ptr %77, align 8
  %79 = load ptr, ptr %7, align 8
  %80 = call i32 @Abc_ObjId(ptr noundef %79)
  %81 = load i32, ptr %13, align 4
  %82 = sub i32 %80, %81
  %83 = sub i32 %82, 1
  %84 = zext i32 %83 to i64
  %85 = getelementptr inbounds i32, ptr %78, i64 %84
  store i32 %75, ptr %85, align 4
  %86 = load ptr, ptr %10, align 8
  %87 = load i32, ptr %8, align 4
  %88 = sext i32 %87 to i64
  %89 = getelementptr inbounds i32, ptr %86, i64 %88
  %90 = load i32, ptr %89, align 4
  %91 = icmp ne i32 %90, 0
  br i1 %91, label %92, label %95

92:                                               ; preds = %70
  %93 = load i32, ptr %9, align 4
  %94 = add nsw i32 %93, 1
  store i32 %94, ptr %9, align 4
  br label %95

95:                                               ; preds = %92, %70
  br label %96

96:                                               ; preds = %95
  %97 = load i32, ptr %8, align 4
  %98 = add nsw i32 %97, 1
  store i32 %98, ptr %8, align 4
  br label %59, !llvm.loop !102

99:                                               ; preds = %68
  %100 = load i32, ptr %9, align 4
  %101 = load ptr, ptr %11, align 8
  %102 = getelementptr inbounds %struct.sim_result, ptr %101, i32 0, i32 3
  store i32 %100, ptr %102, align 4
  %103 = load ptr, ptr %11, align 8
  %104 = getelementptr inbounds %struct.sim_result, ptr %103, i32 0, i32 4
  store double 0.000000e+00, ptr %104, align 8
  %105 = load i32, ptr %6, align 4
  %106 = icmp ne i32 %105, 0
  br i1 %106, label %107, label %133

107:                                              ; preds = %99
  store i32 0, ptr %8, align 4
  br label %108

108:                                              ; preds = %128, %107
  %109 = load i32, ptr %8, align 4
  %110 = load ptr, ptr %4, align 8
  %111 = call i32 @Abc_NtkCiNum(ptr noundef %110)
  %112 = icmp slt i32 %109, %111
  br i1 %112, label %113, label %117

113:                                              ; preds = %108
  %114 = load ptr, ptr %4, align 8
  %115 = load i32, ptr %8, align 4
  %116 = call ptr @Abc_NtkCi(ptr noundef %114, i32 noundef %115)
  store ptr %116, ptr %7, align 8
  br label %117

117:                                              ; preds = %113, %108
  %118 = phi i1 [ false, %108 ], [ true, %113 ]
  br i1 %118, label %119, label %131

119:                                              ; preds = %117
  %120 = load ptr, ptr %7, align 8
  %121 = call ptr @Abc_ObjName(ptr noundef %120)
  %122 = load ptr, ptr %5, align 8
  %123 = load i32, ptr %8, align 4
  %124 = sext i32 %123 to i64
  %125 = getelementptr inbounds i32, ptr %122, i64 %124
  %126 = load i32, ptr %125, align 4
  %127 = call i32 (ptr, ...) @printf(ptr noundef @.str.18, ptr noundef %121, i32 noundef %126)
  br label %128

128:                                              ; preds = %119
  %129 = load i32, ptr %8, align 4
  %130 = add nsw i32 %129, 1
  store i32 %130, ptr %8, align 4
  br label %108, !llvm.loop !103

131:                                              ; preds = %117
  %132 = call i32 (ptr, ...) @printf(ptr noundef @.str.19)
  br label %133

133:                                              ; preds = %131, %99
  %134 = load ptr, ptr %10, align 8
  %135 = icmp ne ptr %134, null
  br i1 %135, label %136, label %138

136:                                              ; preds = %133
  %137 = load ptr, ptr %10, align 8
  call void @free(ptr noundef %137) #10
  store ptr null, ptr %10, align 8
  br label %139

138:                                              ; preds = %133
  br label %139

139:                                              ; preds = %138, %136
  %140 = load ptr, ptr %11, align 8
  ret ptr %140
}