; Function Attrs: nounwind uwtable
define internal fastcc noalias noundef ptr @analyzeConflict(ptr noundef %0, ptr noundef %1, i32 noundef %2) unnamed_addr #0 {
  %4 = getelementptr i8, ptr %0, i64 48
  %.val = load ptr, ptr %4, align 8
  %5 = getelementptr i8, ptr %.val, i64 4
  %.val.val = load i32, ptr %5, align 4
  %6 = getelementptr i8, ptr %0, i64 40
  %.val56 = load ptr, ptr %6, align 8
  %7 = getelementptr i8, ptr %.val56, i64 4
  %.val56.val = load i32, ptr %7, align 4
  %8 = tail call noalias dereferenceable_or_null(32) ptr @malloc(i64 noundef 32) #26
  %9 = sext i32 %.val56.val to i64
  %10 = shl nsw i64 %9, 2
  %11 = tail call noalias noundef ptr @malloc(i64 noundef %10) #26
  store ptr %11, ptr %8, align 8
  %12 = sext i32 %.val.val to i64
  %13 = shl nsw i64 %12, 2
  %14 = tail call noalias noundef ptr @malloc(i64 noundef %13) #26
  %15 = getelementptr inbounds nuw i8, ptr %8, i64 8
  store ptr %14, ptr %15, align 8
  %16 = tail call ptr @Abc_NtkVerifySimulatePattern(ptr noundef %0, ptr noundef %1) #24
  %17 = getelementptr i8, ptr %0, i64 56
  %.val54 = load ptr, ptr %17, align 8
  %18 = getelementptr i8, ptr %.val54, i64 4
  %.val54.val62 = load i32, ptr %18, align 4
  %19 = icmp sgt i32 %.val54.val62, 0
  br i1 %19, label %.lr.ph, label %.critedge.preheader

.lr.ph:                                           ; preds = %3
  %20 = getelementptr i8, ptr %.val54, i64 8
  br label %26

.critedge.preheader:                              ; preds = %26, %3
  %21 = getelementptr i8, ptr %0, i64 64
  %.val55 = load ptr, ptr %21, align 8
  %22 = getelementptr i8, ptr %.val55, i64 4
  %.val55.val64 = load i32, ptr %22, align 4
  %23 = icmp sgt i32 %.val55.val64, 0
  br i1 %23, label %.lr.ph67, label %.critedge2

.lr.ph67:                                         ; preds = %.critedge.preheader
  %24 = getelementptr i8, ptr %.val55, i64 8
  %25 = xor i32 %.val56.val, -1
  br label %.critedge

26:                                               ; preds = %.lr.ph, %26
  %indvars.iv = phi i64 [ 0, %.lr.ph ], [ %indvars.iv.next, %26 ]
  %.val57.val = load ptr, ptr %20, align 8
  %27 = getelementptr inbounds nuw ptr, ptr %.val57.val, i64 %indvars.iv
  %28 = load ptr, ptr %27, align 8
  %29 = getelementptr inbounds nuw i32, ptr %1, i64 %indvars.iv
  %30 = load i32, ptr %29, align 4
  %31 = getelementptr i8, ptr %28, i64 16
  %.val59 = load i32, ptr %31, align 8
  %32 = add i32 %.val59, -1
  %33 = zext i32 %32 to i64
  %34 = getelementptr inbounds nuw i32, ptr %11, i64 %33
  store i32 %30, ptr %34, align 4
  %indvars.iv.next = add nuw nsw i64 %indvars.iv, 1
  %.val54.val = load i32, ptr %18, align 4
  %35 = sext i32 %.val54.val to i64
  %36 = icmp slt i64 %indvars.iv.next, %35
  br i1 %36, label %26, label %.critedge.preheader, !llvm.loop !126

.critedge:                                        ; preds = %.lr.ph67, %.critedge
  %indvars.iv74 = phi i64 [ 0, %.lr.ph67 ], [ %indvars.iv.next75, %.critedge ]
  %.04865 = phi i32 [ 0, %.lr.ph67 ], [ %spec.select, %.critedge ]
  %.val61.val = load ptr, ptr %24, align 8
  %37 = getelementptr inbounds nuw ptr, ptr %.val61.val, i64 %indvars.iv74
  %38 = load ptr, ptr %37, align 8
  %39 = getelementptr inbounds nuw i32, ptr %16, i64 %indvars.iv74
  %40 = load i32, ptr %39, align 4
  %41 = getelementptr i8, ptr %38, i64 16
  %.val60 = load i32, ptr %41, align 8
  %42 = add i32 %.val60, %25
  %43 = zext i32 %42 to i64
  %44 = getelementptr inbounds nuw i32, ptr %14, i64 %43
  store i32 %40, ptr %44, align 4
  %.not52 = icmp ne i32 %40, 0
  %45 = zext i1 %.not52 to i32
  %spec.select = add nuw nsw i32 %.04865, %45
  %indvars.iv.next75 = add nuw nsw i64 %indvars.iv74, 1
  %.val55.val = load i32, ptr %22, align 4
  %46 = sext i32 %.val55.val to i64
  %47 = icmp slt i64 %indvars.iv.next75, %46
  br i1 %47, label %.critedge, label %.critedge2, !llvm.loop !127

.critedge2:                                       ; preds = %.critedge, %.critedge.preheader
  %.048.lcssa = phi i32 [ 0, %.critedge.preheader ], [ %spec.select, %.critedge ]
  %48 = getelementptr inbounds nuw i8, ptr %8, i64 20
  store i32 %.048.lcssa, ptr %48, align 4
  %49 = getelementptr inbounds nuw i8, ptr %8, i64 24
  store double 0.000000e+00, ptr %49, align 8
  %.not = icmp eq i32 %2, 0
  br i1 %.not, label %61, label %.preheader

.preheader:                                       ; preds = %.critedge2
  %.val53.val69 = load i32, ptr %18, align 4
  %50 = icmp sgt i32 %.val53.val69, 0
  br i1 %50, label %.lr.ph72, label %.critedge4

.lr.ph72:                                         ; preds = %.preheader, %.lr.ph72
  %indvars.iv77 = phi i64 [ %indvars.iv.next78, %.lr.ph72 ], [ 0, %.preheader ]
  %.val5371 = phi ptr [ %.val53, %.lr.ph72 ], [ %.val54, %.preheader ]
  %51 = getelementptr i8, ptr %.val5371, i64 8
  %.val58.val = load ptr, ptr %51, align 8
  %52 = getelementptr inbounds nuw ptr, ptr %.val58.val, i64 %indvars.iv77
  %53 = load ptr, ptr %52, align 8
  %54 = tail call ptr @Abc_ObjName(ptr noundef %53) #24
  %55 = getelementptr inbounds nuw i32, ptr %1, i64 %indvars.iv77
  %56 = load i32, ptr %55, align 4
  %57 = tail call i32 (ptr, ...) @printf(ptr noundef nonnull dereferenceable(1) @.str.18, ptr noundef %54, i32 noundef %56)
  %indvars.iv.next78 = add nuw nsw i64 %indvars.iv77, 1
  %.val53 = load ptr, ptr %17, align 8
  %58 = getelementptr i8, ptr %.val53, i64 4
  %.val53.val = load i32, ptr %58, align 4
  %59 = sext i32 %.val53.val to i64
  %60 = icmp slt i64 %indvars.iv.next78, %59
  br i1 %60, label %.lr.ph72, label %.critedge4, !llvm.loop !128

.critedge4:                                       ; preds = %.lr.ph72, %.preheader
  %putchar = tail call i32 @putchar(i32 10)
  br label %61

61:                                               ; preds = %.critedge4, %.critedge2
  %.not51 = icmp eq ptr %16, null
  br i1 %.not51, label %63, label %62

62:                                               ; preds = %61
  tail call void @free(ptr noundef nonnull %16) #24
  br label %63

63:                                               ; preds = %61, %62
  ret ptr %8
}